; Function Attrs: mustprogress uwtable
define dso_local void @_ZN11V3LexerBase15yy_flush_bufferEP15yy_buffer_state(ptr noundef nonnull align 8 dereferenceable(732) %0, ptr noundef %1) local_unnamed_addr #4 align 2 {
  %.not = icmp eq ptr %1, null
  br i1 %.not, label %47, label %3

3:                                                ; preds = %2
  %4 = getelementptr inbounds i8, ptr %1, i64 28
  store i32 0, ptr %4, align 4
  %5 = getelementptr inbounds i8, ptr %1, i64 8
  %6 = load ptr, ptr %5, align 8
  store i8 0, ptr %6, align 1
  %7 = load ptr, ptr %5, align 8
  %8 = getelementptr inbounds i8, ptr %7, i64 1
  store i8 0, ptr %8, align 1
  %9 = load ptr, ptr %5, align 8
  %10 = getelementptr inbounds i8, ptr %1, i64 16
  store ptr %9, ptr %10, align 8
  %11 = getelementptr inbounds i8, ptr %1, i64 40
  store i32 1, ptr %11, align 8
  %12 = getelementptr inbounds i8, ptr %1, i64 56
  store i32 0, ptr %12, align 8
  %13 = getelementptr inbounds i8, ptr %0, i64 648
  %14 = load ptr, ptr %13, align 8
  %.not11 = icmp eq ptr %14, null
  br i1 %.not11, label %20, label %15

15:                                               ; preds = %3
  %16 = getelementptr inbounds i8, ptr %0, i64 632
  %17 = load i64, ptr %16, align 8
  %18 = getelementptr inbounds ptr, ptr %14, i64 %17
  %19 = load ptr, ptr %18, align 8
  br label %20

20:                                               ; preds = %3, %15
  %21 = phi ptr [ %19, %15 ], [ null, %3 ]
  %22 = icmp eq ptr %21, %1
  br i1 %22, label %23, label %47

23:                                               ; preds = %20
  %24 = getelementptr inbounds i8, ptr %0, i64 632
  %25 = load i64, ptr %24, align 8
  %26 = getelementptr inbounds ptr, ptr %14, i64 %25
  %27 = load ptr, ptr %26, align 8
  %28 = getelementptr inbounds i8, ptr %27, i64 28
  %29 = load i32, ptr %28, align 4
  %30 = getelementptr inbounds i8, ptr %0, i64 604
  store i32 %29, ptr %30, align 4
  %31 = load ptr, ptr %26, align 8
  %32 = getelementptr inbounds i8, ptr %31, i64 16
  %33 = load ptr, ptr %32, align 8
  %34 = getelementptr inbounds i8, ptr %0, i64 608
  store ptr %33, ptr %34, align 8
  %35 = getelementptr inbounds i8, ptr %0, i64 8
  store ptr %33, ptr %35, align 8
  %36 = getelementptr inbounds i8, ptr %0, i64 48
  %37 = load ptr, ptr %36, align 8
  %38 = getelementptr i8, ptr %37, i64 -24
  %39 = load i64, ptr %38, align 8
  %40 = getelementptr inbounds i8, ptr %36, i64 %39
  %41 = load ptr, ptr %26, align 8
  %42 = load ptr, ptr %41, align 8
  %43 = tail call noundef ptr @_ZNSt9basic_iosIcSt11char_traitsIcEE5rdbufEPSt15basic_streambufIcS1_E(ptr noundef nonnull align 8 dereferenceable(264) %40, ptr noundef %42)
  %44 = load ptr, ptr %34, align 8
  %45 = load i8, ptr %44, align 1
  %46 = getelementptr inbounds i8, ptr %0, i64 600
  store i8 %45, ptr %46, align 8
  br label %47

47:                                               ; preds = %2, %23, %20
  ret void
}